target datalayout = "e-m:e-p270:32:32-p271:32:32-p272:64:64-i64:64-i128:128-f80:128-n8:16:32:64-S128"
target triple = "x86_64-pc-linux-gnu"

@_ZN6google8protobuf8internalL12log_handler_B5cxx11E = internal global ptr @_ZN6google8protobuf8internal17DefaultLogHandlerENS0_8LogLevelEPKciRKNSt7__cxx1112basic_stringIcSt11char_traitsIcESaIcEEE, align 8

; Function Attrs: mustprogress nounwind uwtable
define noundef ptr @_ZN6google8protobuf13SetLogHandlerEPFvNS0_8LogLevelEPKciRKNSt7__cxx1112basic_stringIcSt11char_traitsIcESaIcEEEE(ptr noundef %0) #5 {
  %2 = alloca ptr, align 8
  %3 = alloca ptr, align 8
  store ptr %0, ptr %2, align 8
  %4 = load ptr, ptr @_ZN6google8protobuf8internalL12log_handler_B5cxx11E, align 8
  store ptr %4, ptr %3, align 8
  %5 = load ptr, ptr %3, align 8
  %6 = icmp eq ptr %5, @_ZN6google8protobuf8internal14NullLogHandlerENS0_8LogLevelEPKciRKNSt7__cxx1112basic_stringIcSt11char_traitsIcESaIcEEE
  br i1 %6, label %7, label %8

7:                                                ; preds = %1
  store ptr null, ptr %3, align 8
  br label %8

8:                                                ; preds = %7, %1
  %9 = load ptr, ptr %2, align 8
  %10 = icmp eq ptr %9, null
  br i1 %10, label %11, label %12

11:                                               ; preds = %8
  store ptr @_ZN6google8protobuf8internal14NullLogHandlerENS0_8LogLevelEPKciRKNSt7__cxx1112basic_stringIcSt11char_traitsIcESaIcEEE, ptr @_ZN6google8protobuf8internalL12log_handler_B5cxx11E, align 8
  br label %14

12:                                               ; preds = %8
  %13 = load ptr, ptr %2, align 8
  store ptr %13, ptr @_ZN6google8protobuf8internalL12log_handler_B5cxx11E, align 8
  br label %14

14:                                               ; preds = %12, %11
  %15 = load ptr, ptr %3, align 8
  ret ptr %15
}