; Function Attrs: mustprogress nofree norecurse nosync nounwind willreturn memory(readwrite, argmem: none, inaccessiblemem: none) uwtable
define noundef ptr @_ZN6google8protobuf13SetLogHandlerEPFvNS0_8LogLevelEPKciRKNSt7__cxx1112basic_stringIcSt11char_traitsIcESaIcEEEE(ptr noundef %0) local_unnamed_addr #7 {
  %2 = load ptr, ptr @_ZN6google8protobuf8internalL12log_handler_B5cxx11E, align 8
  %3 = icmp eq ptr %0, null
  %_ZN6google8protobuf8internal14NullLogHandlerENS0_8LogLevelEPKciRKNSt7__cxx1112basic_stringIcSt11char_traitsIcESaIcEEE. = select i1 %3, ptr @_ZN6google8protobuf8internal14NullLogHandlerENS0_8LogLevelEPKciRKNSt7__cxx1112basic_stringIcSt11char_traitsIcESaIcEEE, ptr %0
  store ptr %_ZN6google8protobuf8internal14NullLogHandlerENS0_8LogLevelEPKciRKNSt7__cxx1112basic_stringIcSt11char_traitsIcESaIcEEE., ptr @_ZN6google8protobuf8internalL12log_handler_B5cxx11E, align 8
  %4 = icmp eq ptr %2, @_ZN6google8protobuf8internal14NullLogHandlerENS0_8LogLevelEPKciRKNSt7__cxx1112basic_stringIcSt11char_traitsIcESaIcEEE
  %spec.store.select = select i1 %4, ptr null, ptr %2
  ret ptr %spec.store.select
}